target datalayout = "e-m:e-p270:32:32-p271:32:32-p272:64:64-i64:64-i128:128-f80:128-n8:16:32:64-S128"
target triple = "x86_64-pc-linux-gnu"

; Function Attrs: nounwind uwtable
define internal void @wmv2_idct_col(ptr noundef %0) #1 {
  %2 = alloca ptr, align 8
  %3 = alloca i32, align 4
  %4 = alloca i32, align 4
  %5 = alloca i32, align 4
  %6 = alloca i32, align 4
  %7 = alloca i32, align 4
  %8 = alloca i32, align 4
  %9 = alloca i32, align 4
  %10 = alloca i32, align 4
  %11 = alloca i32, align 4
  %12 = alloca i32, align 4
  store ptr %0, ptr %2, align 8, !tbaa !19
  call void @llvm.lifetime.start.p0(i64 4, ptr %3) #5
  call void @llvm.lifetime.start.p0(i64 4, ptr %4) #5
  call void @llvm.lifetime.start.p0(i64 4, ptr %5) #5
  call void @llvm.lifetime.start.p0(i64 4, ptr %6) #5
  call void @llvm.lifetime.start.p0(i64 4, ptr %7) #5
  call void @llvm.lifetime.start.p0(i64 4, ptr %8) #5
  call void @llvm.lifetime.start.p0(i64 4, ptr %9) #5
  call void @llvm.lifetime.start.p0(i64 4, ptr %10) #5
  call void @llvm.lifetime.start.p0(i64 4, ptr %11) #5
  call void @llvm.lifetime.start.p0(i64 4, ptr %12) #5
  %13 = load ptr, ptr %2, align 8, !tbaa !19
  %14 = getelementptr inbounds i16, ptr %13, i64 8
  %15 = load i16, ptr %14, align 2, !tbaa !26
  %16 = sext i16 %15 to i32
  %17 = mul nsw i32 2841, %16
  %18 = load ptr, ptr %2, align 8, !tbaa !19
  %19 = getelementptr inbounds i16, ptr %18, i64 56
  %20 = load i16, ptr %19, align 2, !tbaa !26
  %21 = sext i16 %20 to i32
  %22 = mul nsw i32 565, %21
  %23 = add nsw i32 %17, %22
  %24 = add nsw i32 %23, 4
  %25 = ashr i32 %24, 3
  store i32 %25, ptr %6, align 4, !tbaa !21
  %26 = load ptr, ptr %2, align 8, !tbaa !19
  %27 = getelementptr inbounds i16, ptr %26, i64 8
  %28 = load i16, ptr %27, align 2, !tbaa !26
  %29 = sext i16 %28 to i32
  %30 = mul nsw i32 565, %29
  %31 = load ptr, ptr %2, align 8, !tbaa !19
  %32 = getelementptr inbounds i16, ptr %31, i64 56
  %33 = load i16, ptr %32, align 2, !tbaa !26
  %34 = sext i16 %33 to i32
  %35 = mul nsw i32 2841, %34
  %36 = sub nsw i32 %30, %35
  %37 = add nsw i32 %36, 4
  %38 = ashr i32 %37, 3
  store i32 %38, ptr %12, align 4, !tbaa !21
  %39 = load ptr, ptr %2, align 8, !tbaa !19
  %40 = getelementptr inbounds i16, ptr %39, i64 40
  %41 = load i16, ptr %40, align 2, !tbaa !26
  %42 = sext i16 %41 to i32
  %43 = mul nsw i32 1609, %42
  %44 = load ptr, ptr %2, align 8, !tbaa !19
  %45 = getelementptr inbounds i16, ptr %44, i64 24
  %46 = load i16, ptr %45, align 2, !tbaa !26
  %47 = sext i16 %46 to i32
  %48 = mul nsw i32 2408, %47
  %49 = add nsw i32 %43, %48
  %50 = add nsw i32 %49, 4
  %51 = ashr i32 %50, 3
  store i32 %51, ptr %10, align 4, !tbaa !21
  %52 = load ptr, ptr %2, align 8, !tbaa !19
  %53 = getelementptr inbounds i16, ptr %52, i64 40
  %54 = load i16, ptr %53, align 2, !tbaa !26
  %55 = sext i16 %54 to i32
  %56 = mul nsw i32 2408, %55
  %57 = load ptr, ptr %2, align 8, !tbaa !19
  %58 = getelementptr inbounds i16, ptr %57, i64 24
  %59 = load i16, ptr %58, align 2, !tbaa !26
  %60 = sext i16 %59 to i32
  %61 = mul nsw i32 1609, %60
  %62 = sub nsw i32 %56, %61
  %63 = add nsw i32 %62, 4
  %64 = ashr i32 %63, 3
  store i32 %64, ptr %8, align 4, !tbaa !21
  %65 = load ptr, ptr %2, align 8, !tbaa !19
  %66 = getelementptr inbounds i16, ptr %65, i64 16
  %67 = load i16, ptr %66, align 2, !tbaa !26
  %68 = sext i16 %67 to i32
  %69 = mul nsw i32 2676, %68
  %70 = load ptr, ptr %2, align 8, !tbaa !19
  %71 = getelementptr inbounds i16, ptr %70, i64 48
  %72 = load i16, ptr %71, align 2, !tbaa !26
  %73 = sext i16 %72 to i32
  %74 = mul nsw i32 1108, %73
  %75 = add nsw i32 %69, %74
  %76 = add nsw i32 %75, 4
  %77 = ashr i32 %76, 3
  store i32 %77, ptr %7, align 4, !tbaa !21
  %78 = load ptr, ptr %2, align 8, !tbaa !19
  %79 = getelementptr inbounds i16, ptr %78, i64 16
  %80 = load i16, ptr %79, align 2, !tbaa !26
  %81 = sext i16 %80 to i32
  %82 = mul nsw i32 1108, %81
  %83 = load ptr, ptr %2, align 8, !tbaa !19
  %84 = getelementptr inbounds i16, ptr %83, i64 48
  %85 = load i16, ptr %84, align 2, !tbaa !26
  %86 = sext i16 %85 to i32
  %87 = mul nsw i32 2676, %86
  %88 = sub nsw i32 %82, %87
  %89 = add nsw i32 %88, 4
  %90 = ashr i32 %89, 3
  store i32 %90, ptr %11, align 4, !tbaa !21
  %91 = load ptr, ptr %2, align 8, !tbaa !19
  %92 = getelementptr inbounds i16, ptr %91, i64 0
  %93 = load i16, ptr %92, align 2, !tbaa !26
  %94 = sext i16 %93 to i32
  %95 = mul nsw i32 2048, %94
  %96 = load ptr, ptr %2, align 8, !tbaa !19
  %97 = getelementptr inbounds i16, ptr %96, i64 32
  %98 = load i16, ptr %97, align 2, !tbaa !26
  %99 = sext i16 %98 to i32
  %100 = mul nsw i32 2048, %99
  %101 = add nsw i32 %95, %100
  %102 = ashr i32 %101, 3
  store i32 %102, ptr %5, align 4, !tbaa !21
  %103 = load ptr, ptr %2, align 8, !tbaa !19
  %104 = getelementptr inbounds i16, ptr %103, i64 0
  %105 = load i16, ptr %104, align 2, !tbaa !26
  %106 = sext i16 %105 to i32
  %107 = mul nsw i32 2048, %106
  %108 = load ptr, ptr %2, align 8, !tbaa !19
  %109 = getelementptr inbounds i16, ptr %108, i64 32
  %110 = load i16, ptr %109, align 2, !tbaa !26
  %111 = sext i16 %110 to i32
  %112 = mul nsw i32 2048, %111
  %113 = sub nsw i32 %107, %112
  %114 = ashr i32 %113, 3
  store i32 %114, ptr %9, align 4, !tbaa !21
  %115 = load i32, ptr %6, align 4, !tbaa !21
  %116 = load i32, ptr %10, align 4, !tbaa !21
  %117 = sub nsw i32 %115, %116
  %118 = load i32, ptr %12, align 4, !tbaa !21
  %119 = add nsw i32 %117, %118
  %120 = load i32, ptr %8, align 4, !tbaa !21
  %121 = sub nsw i32 %119, %120
  %122 = mul i32 181, %121
  %123 = add i32 %122, 128
  %124 = ashr i32 %123, 8
  store i32 %124, ptr %3, align 4, !tbaa !21
  %125 = load i32, ptr %6, align 4, !tbaa !21
  %126 = load i32, ptr %10, align 4, !tbaa !21
  %127 = sub nsw i32 %125, %126
  %128 = load i32, ptr %12, align 4, !tbaa !21
  %129 = sub nsw i32 %127, %128
  %130 = load i32, ptr %8, align 4, !tbaa !21
  %131 = add nsw i32 %129, %130
  %132 = mul i32 181, %131
  %133 = add i32 %132, 128
  %134 = ashr i32 %133, 8
  store i32 %134, ptr %4, align 4, !tbaa !21
  %135 = load i32, ptr %5, align 4, !tbaa !21
  %136 = load i32, ptr %7, align 4, !tbaa !21
  %137 = add nsw i32 %135, %136
  %138 = load i32, ptr %6, align 4, !tbaa !21
  %139 = add nsw i32 %137, %138
  %140 = load i32, ptr %10, align 4, !tbaa !21
  %141 = add nsw i32 %139, %140
  %142 = add nsw i32 %141, 8192
  %143 = ashr i32 %142, 14
  %144 = trunc i32 %143 to i16
  %145 = load ptr, ptr %2, align 8, !tbaa !19
  %146 = getelementptr inbounds i16, ptr %145, i64 0
  store i16 %144, ptr %146, align 2, !tbaa !26
  %147 = load i32, ptr %9, align 4, !tbaa !21
  %148 = load i32, ptr %11, align 4, !tbaa !21
  %149 = add nsw i32 %147, %148
  %150 = load i32, ptr %3, align 4, !tbaa !21
  %151 = add nsw i32 %149, %150
  %152 = add nsw i32 %151, 8192
  %153 = ashr i32 %152, 14
  %154 = trunc i32 %153 to i16
  %155 = load ptr, ptr %2, align 8, !tbaa !19
  %156 = getelementptr inbounds i16, ptr %155, i64 8
  store i16 %154, ptr %156, align 2, !tbaa !26
  %157 = load i32, ptr %9, align 4, !tbaa !21
  %158 = load i32, ptr %11, align 4, !tbaa !21
  %159 = sub nsw i32 %157, %158
  %160 = load i32, ptr %4, align 4, !tbaa !21
  %161 = add nsw i32 %159, %160
  %162 = add nsw i32 %161, 8192
  %163 = ashr i32 %162, 14
  %164 = trunc i32 %163 to i16
  %165 = load ptr, ptr %2, align 8, !tbaa !19
  %166 = getelementptr inbounds i16, ptr %165, i64 16
  store i16 %164, ptr %166, align 2, !tbaa !26
  %167 = load i32, ptr %5, align 4, !tbaa !21
  %168 = load i32, ptr %7, align 4, !tbaa !21
  %169 = sub nsw i32 %167, %168
  %170 = load i32, ptr %12, align 4, !tbaa !21
  %171 = add nsw i32 %169, %170
  %172 = load i32, ptr %8, align 4, !tbaa !21
  %173 = add nsw i32 %171, %172
  %174 = add nsw i32 %173, 8192
  %175 = ashr i32 %174, 14
  %176 = trunc i32 %175 to i16
  %177 = load ptr, ptr %2, align 8, !tbaa !19
  %178 = getelementptr inbounds i16, ptr %177, i64 24
  store i16 %176, ptr %178, align 2, !tbaa !26
  %179 = load i32, ptr %5, align 4, !tbaa !21
  %180 = load i32, ptr %7, align 4, !tbaa !21
  %181 = sub nsw i32 %179, %180
  %182 = load i32, ptr %12, align 4, !tbaa !21
  %183 = sub nsw i32 %181, %182
  %184 = load i32, ptr %8, align 4, !tbaa !21
  %185 = sub nsw i32 %183, %184
  %186 = add nsw i32 %185, 8192
  %187 = ashr i32 %186, 14
  %188 = trunc i32 %187 to i16
  %189 = load ptr, ptr %2, align 8, !tbaa !19
  %190 = getelementptr inbounds i16, ptr %189, i64 32
  store i16 %188, ptr %190, align 2, !tbaa !26
  %191 = load i32, ptr %9, align 4, !tbaa !21
  %192 = load i32, ptr %11, align 4, !tbaa !21
  %193 = sub nsw i32 %191, %192
  %194 = load i32, ptr %4, align 4, !tbaa !21
  %195 = sub nsw i32 %193, %194
  %196 = add nsw i32 %195, 8192
  %197 = ashr i32 %196, 14
  %198 = trunc i32 %197 to i16
  %199 = load ptr, ptr %2, align 8, !tbaa !19
  %200 = getelementptr inbounds i16, ptr %199, i64 40
  store i16 %198, ptr %200, align 2, !tbaa !26
  %201 = load i32, ptr %9, align 4, !tbaa !21
  %202 = load i32, ptr %11, align 4, !tbaa !21
  %203 = add nsw i32 %201, %202
  %204 = load i32, ptr %3, align 4, !tbaa !21
  %205 = sub nsw i32 %203, %204
  %206 = add nsw i32 %205, 8192
  %207 = ashr i32 %206, 14
  %208 = trunc i32 %207 to i16
  %209 = load ptr, ptr %2, align 8, !tbaa !19
  %210 = getelementptr inbounds i16, ptr %209, i64 48
  store i16 %208, ptr %210, align 2, !tbaa !26
  %211 = load i32, ptr %5, align 4, !tbaa !21
  %212 = load i32, ptr %7, align 4, !tbaa !21
  %213 = add nsw i32 %211, %212
  %214 = load i32, ptr %6, align 4, !tbaa !21
  %215 = sub nsw i32 %213, %214
  %216 = load i32, ptr %10, align 4, !tbaa !21
  %217 = sub nsw i32 %215, %216
  %218 = add nsw i32 %217, 8192
  %219 = ashr i32 %218, 14
  %220 = trunc i32 %219 to i16
  %221 = load ptr, ptr %2, align 8, !tbaa !19
  %222 = getelementptr inbounds i16, ptr %221, i64 56
  store i16 %220, ptr %222, align 2, !tbaa !26
  call void @llvm.lifetime.end.p0(i64 4, ptr %12) #5
  call void @llvm.lifetime.end.p0(i64 4, ptr %11) #5
  call void @llvm.lifetime.end.p0(i64 4, ptr %10) #5
  call void @llvm.lifetime.end.p0(i64 4, ptr %9) #5
  call void @llvm.lifetime.end.p0(i64 4, ptr %8) #5
  call void @llvm.lifetime.end.p0(i64 4, ptr %7) #5
  call void @llvm.lifetime.end.p0(i64 4, ptr %6) #5
  call void @llvm.lifetime.end.p0(i64 4, ptr %5) #5
  call void @llvm.lifetime.end.p0(i64 4, ptr %4) #5
  call void @llvm.lifetime.end.p0(i64 4, ptr %3) #5
  ret void
}