; Function Attrs: mustprogress nofree norecurse nosync nounwind willreturn memory(argmem: readwrite) uwtable
define internal fastcc void @wmv2_idct_col(ptr noundef captures(none) %0) unnamed_addr #5 {
  %2 = getelementptr inbounds nuw i8, ptr %0, i64 16
  %3 = load i16, ptr %2, align 2, !tbaa !13
  %4 = sext i16 %3 to i32
  %5 = mul nsw i32 %4, 2841
  %6 = getelementptr inbounds nuw i8, ptr %0, i64 112
  %7 = load i16, ptr %6, align 2, !tbaa !13
  %8 = sext i16 %7 to i32
  %9 = mul nsw i32 %8, 565
  %10 = add nsw i32 %5, 4
  %11 = add nsw i32 %10, %9
  %12 = ashr i32 %11, 3
  %13 = mul nsw i32 %4, 565
  %.neg = mul nsw i32 %8, -2841
  %14 = add nsw i32 %13, 4
  %15 = add nsw i32 %14, %.neg
  %16 = ashr i32 %15, 3
  %17 = getelementptr inbounds nuw i8, ptr %0, i64 80
  %18 = load i16, ptr %17, align 2, !tbaa !13
  %19 = sext i16 %18 to i32
  %20 = mul nsw i32 %19, 1609
  %21 = getelementptr inbounds nuw i8, ptr %0, i64 48
  %22 = load i16, ptr %21, align 2, !tbaa !13
  %23 = sext i16 %22 to i32
  %24 = mul nsw i32 %23, 2408
  %25 = add nsw i32 %20, 4
  %26 = add nsw i32 %25, %24
  %27 = ashr i32 %26, 3
  %28 = mul nsw i32 %19, 2408
  %.neg59 = mul nsw i32 %23, -1609
  %29 = or disjoint i32 %28, 4
  %30 = add nsw i32 %29, %.neg59
  %31 = ashr i32 %30, 3
  %32 = getelementptr inbounds nuw i8, ptr %0, i64 32
  %33 = load i16, ptr %32, align 2, !tbaa !13
  %34 = sext i16 %33 to i32
  %35 = mul nsw i32 %34, 2676
  %36 = getelementptr inbounds nuw i8, ptr %0, i64 96
  %37 = load i16, ptr %36, align 2, !tbaa !13
  %38 = sext i16 %37 to i32
  %39 = mul nsw i32 %38, 1108
  %40 = add nsw i32 %35, 4
  %41 = add nsw i32 %40, %39
  %42 = ashr i32 %41, 3
  %43 = mul nsw i32 %34, 1108
  %.neg60 = mul nsw i32 %38, -2676
  %44 = add nsw i32 %43, 4
  %45 = add nsw i32 %44, %.neg60
  %46 = ashr i32 %45, 3
  %47 = load i16, ptr %0, align 2, !tbaa !13
  %48 = sext i16 %47 to i32
  %49 = shl nsw i32 %48, 11
  %50 = getelementptr inbounds nuw i8, ptr %0, i64 64
  %51 = load i16, ptr %50, align 2, !tbaa !13
  %52 = sext i16 %51 to i32
  %53 = shl nsw i32 %52, 11
  %54 = add nsw i32 %53, %49
  %55 = ashr exact i32 %54, 3
  %56 = sub nsw i32 %49, %53
  %57 = ashr exact i32 %56, 3
  %58 = sub nsw i32 %12, %27
  %59 = sub nsw i32 %16, %31
  %60 = add nsw i32 %59, %58
  %61 = mul i32 %60, 181
  %62 = add i32 %61, 128
  %63 = ashr i32 %62, 8
  %64 = sub nsw i32 %31, %16
  %65 = add nsw i32 %64, %58
  %66 = mul i32 %65, 181
  %67 = add i32 %66, 128
  %68 = ashr i32 %67, 8
  %69 = add nsw i32 %55, %42
  %70 = add nsw i32 %27, %12
  %71 = add nsw i32 %70, 8192
  %72 = add nsw i32 %71, %69
  %73 = lshr i32 %72, 14
  %74 = trunc i32 %73 to i16
  store i16 %74, ptr %0, align 2, !tbaa !13
  %75 = add nsw i32 %57, %46
  %76 = add nsw i32 %63, 8192
  %77 = add nsw i32 %76, %75
  %78 = lshr i32 %77, 14
  %79 = trunc i32 %78 to i16
  store i16 %79, ptr %2, align 2, !tbaa !13
  %80 = sub nsw i32 %57, %46
  %81 = add nsw i32 %80, 8192
  %82 = add nsw i32 %81, %68
  %83 = lshr i32 %82, 14
  %84 = trunc i32 %83 to i16
  store i16 %84, ptr %32, align 2, !tbaa !13
  %85 = sub nsw i32 %55, %42
  %86 = add nsw i32 %31, %16
  %87 = add nsw i32 %86, 8192
  %88 = add nsw i32 %87, %85
  %89 = lshr i32 %88, 14
  %90 = trunc i32 %89 to i16
  store i16 %90, ptr %21, align 2, !tbaa !13
  %reass.sub = sub nsw i32 %85, %86
  %91 = add nsw i32 %reass.sub, 8192
  %92 = lshr i32 %91, 14
  %93 = trunc i32 %92 to i16
  store i16 %93, ptr %50, align 2, !tbaa !13
  %94 = sub nsw i32 %81, %68
  %95 = lshr i32 %94, 14
  %96 = trunc i32 %95 to i16
  store i16 %96, ptr %17, align 2, !tbaa !13
  %reass.sub69 = sub nsw i32 %75, %63
  %97 = add nsw i32 %reass.sub69, 8192
  %98 = lshr i32 %97, 14
  %99 = trunc i32 %98 to i16
  store i16 %99, ptr %36, align 2, !tbaa !13
  %reass.sub70 = sub nsw i32 %69, %70
  %100 = add nsw i32 %reass.sub70, 8192
  %101 = lshr i32 %100, 14
  %102 = trunc i32 %101 to i16
  store i16 %102, ptr %6, align 2, !tbaa !13
  ret void
}